target datalayout = "e-m:e-p270:32:32-p271:32:32-p272:64:64-i64:64-i128:128-f80:128-n8:16:32:64-S128"
target triple = "x86_64-pc-linux-gnu"

%"class.google::protobuf::MessageLite" = type { ptr, %"class.google::protobuf::internal::InternalMetadata" }
%"class.google::protobuf::internal::InternalMetadata" = type { ptr }
%"class.google::protobuf::internal::CachedSize" = type { %"struct.std::atomic" }
%"struct.std::atomic" = type { %"struct.std::__atomic_base" }
%"struct.std::__atomic_base" = type { i32 }
%"class.google::protobuf::internal::RepeatedPtrFieldBase" = type { ptr, i32, i32, ptr }
%"struct.google::protobuf::internal::InternalMetadata::Container" = type { %"struct.google::protobuf::internal::InternalMetadata::ContainerBase", %"class.std::__cxx11::basic_string" }
%"struct.google::protobuf::internal::InternalMetadata::ContainerBase" = type { ptr }
%"class.std::__cxx11::basic_string" = type { %"struct.std::__cxx11::basic_string<char>::_Alloc_hider", i64, %union.anon }
%"struct.std::__cxx11::basic_string<char>::_Alloc_hider" = type { ptr }
%union.anon = type { i64, [8 x i8] }
%"class.i18n::phonenumbers::PhoneMetadataCollection" = type <{ %"class.google::protobuf::MessageLite", %"class.google::protobuf::RepeatedPtrField.6", %"class.google::protobuf::internal::CachedSize", [4 x i8] }>
%"class.google::protobuf::RepeatedPtrField.6" = type { %"class.google::protobuf::internal::RepeatedPtrFieldBase" }
%"class.google::protobuf::internal::RepeatedPtrIterator.7" = type { ptr }
%"class.google::protobuf::internal::RepeatedPtrIterator.23" = type { ptr }
%"struct.google::protobuf::internal::RepeatedPtrFieldBase::Rep" = type { i32, [1 x ptr] }

; Function Attrs: mustprogress nounwind uwtable
define linkonce_odr dso_local noundef i32 @_ZN6google8protobuf4Bits16Log2FloorNonZeroEj(i32 noundef %0) #5 comdat align 2 {
  %2 = alloca i32, align 4
  store i32 %0, ptr %2, align 4
  %3 = load i32, ptr %2, align 4
  %4 = call i32 @llvm.ctlz.i32(i32 %3, i1 true)
  %5 = xor i32 31, %4
  ret i32 %5
}

; Function Attrs: noreturn nounwind uwtable
define linkonce_odr hidden void @__clang_call_terminate(ptr noundef %0) #7 comdat {
  %2 = call ptr @__cxa_begin_catch(ptr %0) #3
  call void @_ZSt9terminatev() #15
  unreachable
}

; Function Attrs: mustprogress nounwind uwtable
define linkonce_odr dso_local noundef i32 @_ZStanSt12memory_orderSt23__memory_order_modifier(i32 noundef %0, i32 noundef %1) #5 comdat {
  %3 = alloca i32, align 4
  %4 = alloca i32, align 4
  store i32 %0, ptr %3, align 4
  store i32 %1, ptr %4, align 4
  %5 = load i32, ptr %3, align 4
  %6 = load i32, ptr %4, align 4
  %7 = and i32 %5, %6
  ret i32 %7
}

; Function Attrs: mustprogress uwtable
define linkonce_odr dso_local noundef i64 @_ZN6google8protobuf2io17CodedOutputStream12VarintSize32Ej(i32 noundef %0) #4 comdat align 2 {
  %2 = alloca i32, align 4
  %3 = alloca i32, align 4
  store i32 %0, ptr %2, align 4
  %4 = load i32, ptr %2, align 4
  %5 = or i32 %4, 1
  %6 = call noundef i32 @_ZN6google8protobuf4Bits16Log2FloorNonZeroEj(i32 noundef %5)
  store i32 %6, ptr %3, align 4
  %7 = load i32, ptr %3, align 4
  %8 = mul i32 %7, 9
  %9 = add i32 %8, 73
  %10 = udiv i32 %9, 64
  %11 = zext i32 %10 to i64
  ret i64 %11
}

; Function Attrs: mustprogress nounwind uwtable
define linkonce_odr dso_local noundef i32 @_ZNK6google8protobuf8internal20RepeatedPtrFieldBase4sizeEv(ptr noundef nonnull align 8 dereferenceable(24) %0) #5 comdat align 2 {
  %2 = alloca ptr, align 8
  store ptr %0, ptr %2, align 8
  %3 = load ptr, ptr %2, align 8
  %4 = getelementptr inbounds %"class.google::protobuf::internal::RepeatedPtrFieldBase", ptr %3, i32 0, i32 1
  %5 = load i32, ptr %4, align 8
  ret i32 %5
}

; Function Attrs: mustprogress nounwind uwtable
define linkonce_odr dso_local void @_ZN6google8protobuf8internal10CachedSize3SetEi(ptr noundef nonnull align 4 dereferenceable(4) %0, i32 noundef %1) #5 comdat align 2 personality ptr @__gxx_personality_v0 {
  %3 = alloca ptr, align 8
  %4 = alloca i32, align 4
  %5 = alloca i32, align 4
  %6 = alloca i32, align 4
  %7 = alloca i32, align 4
  %8 = alloca ptr, align 8
  %9 = alloca i32, align 4
  store ptr %0, ptr %8, align 8
  store i32 %1, ptr %9, align 4
  %10 = load ptr, ptr %8, align 8
  %11 = getelementptr inbounds %"class.google::protobuf::internal::CachedSize", ptr %10, i32 0, i32 0
  %12 = load i32, ptr %9, align 4
  store ptr %11, ptr %3, align 8
  store i32 %12, ptr %4, align 4
  store i32 0, ptr %5, align 4
  %13 = load ptr, ptr %3, align 8
  %14 = load i32, ptr %5, align 4
  %15 = invoke noundef i32 @_ZStanSt12memory_orderSt23__memory_order_modifier(i32 noundef %14, i32 noundef 65535)
          to label %16 unwind label %25

16:                                               ; preds = %2
  store i32 %15, ptr %6, align 4
  %17 = load i32, ptr %5, align 4
  %18 = load i32, ptr %4, align 4
  store i32 %18, ptr %7, align 4
  switch i32 %17, label %19 [
    i32 3, label %21
    i32 5, label %23
  ]

19:                                               ; preds = %16
  %20 = load i32, ptr %7, align 4
  store atomic i32 %20, ptr %13 monotonic, align 4
  br label %28

21:                                               ; preds = %16
  %22 = load i32, ptr %7, align 4
  store atomic i32 %22, ptr %13 release, align 4
  br label %28

23:                                               ; preds = %16
  %24 = load i32, ptr %7, align 4
  store atomic i32 %24, ptr %13 seq_cst, align 4
  br label %28

25:                                               ; preds = %2
  %26 = landingpad { ptr, i32 }
          catch ptr null
  %27 = extractvalue { ptr, i32 } %26, 0
  call void @__clang_call_terminate(ptr %27) #15
  unreachable

28:                                               ; preds = %23, %21, %19
  ret void
}

; Function Attrs: mustprogress uwtable
define linkonce_odr dso_local noundef i64 @_ZN6google8protobuf8internal14WireFormatLite19LengthDelimitedSizeEm(i64 noundef %0) #4 comdat align 2 {
  %2 = alloca i64, align 8
  store i64 %0, ptr %2, align 8
  %3 = load i64, ptr %2, align 8
  %4 = load i64, ptr %2, align 8
  %5 = trunc i64 %4 to i32
  %6 = call noundef i64 @_ZN6google8protobuf2io17CodedOutputStream12VarintSize32Ej(i32 noundef %5)
  %7 = add i64 %3, %6
  ret i64 %7
}

; Function Attrs: mustprogress nounwind uwtable
define linkonce_odr dso_local void @_ZN6google8protobuf8internal19RepeatedPtrIteratorIKN4i18n12phonenumbers13PhoneMetadataEEC2IS5_EERKNS2_IT_EE(ptr noundef nonnull align 8 dereferenceable(8) %0, ptr noundef nonnull align 8 dereferenceable(8) %1) unnamed_addr #5 comdat align 2 {
  %3 = alloca ptr, align 8
  %4 = alloca ptr, align 8
  store ptr %0, ptr %3, align 8
  store ptr %1, ptr %4, align 8
  %5 = load ptr, ptr %3, align 8
  %6 = getelementptr inbounds %"class.google::protobuf::internal::RepeatedPtrIterator.7", ptr %5, i32 0, i32 0
  %7 = load ptr, ptr %4, align 8
  %8 = getelementptr inbounds %"class.google::protobuf::internal::RepeatedPtrIterator.23", ptr %7, i32 0, i32 0
  %9 = load ptr, ptr %8, align 8
  store ptr %9, ptr %6, align 8
  ret void
}

; Function Attrs: mustprogress nounwind uwtable
define linkonce_odr dso_local void @_ZN6google8protobuf8internal19RepeatedPtrIteratorIN4i18n12phonenumbers13PhoneMetadataEEC2EPKPv(ptr noundef nonnull align 8 dereferenceable(8) %0, ptr noundef %1) unnamed_addr #5 comdat align 2 {
  %3 = alloca ptr, align 8
  %4 = alloca ptr, align 8
  store ptr %0, ptr %3, align 8
  store ptr %1, ptr %4, align 8
  %5 = load ptr, ptr %3, align 8
  %6 = getelementptr inbounds %"class.google::protobuf::internal::RepeatedPtrIterator.23", ptr %5, i32 0, i32 0
  %7 = load ptr, ptr %4, align 8
  store ptr %7, ptr %6, align 8
  ret void
}

; Function Attrs: mustprogress nounwind uwtable
define linkonce_odr dso_local noundef ptr @_ZNK6google8protobuf8internal20RepeatedPtrFieldBase8raw_dataEv(ptr noundef nonnull align 8 dereferenceable(24) %0) #5 comdat align 2 {
  %2 = alloca ptr, align 8
  store ptr %0, ptr %2, align 8
  %3 = load ptr, ptr %2, align 8
  %4 = getelementptr inbounds %"class.google::protobuf::internal::RepeatedPtrFieldBase", ptr %3, i32 0, i32 3
  %5 = load ptr, ptr %4, align 8
  %6 = icmp ne ptr %5, null
  br i1 %6, label %7, label %12

7:                                                ; preds = %1
  %8 = getelementptr inbounds %"class.google::protobuf::internal::RepeatedPtrFieldBase", ptr %3, i32 0, i32 3
  %9 = load ptr, ptr %8, align 8
  %10 = getelementptr inbounds %"struct.google::protobuf::internal::RepeatedPtrFieldBase::Rep", ptr %9, i32 0, i32 1
  %11 = getelementptr inbounds [1 x ptr], ptr %10, i64 0, i64 0
  br label %13

12:                                               ; preds = %1
  br label %13

13:                                               ; preds = %12, %7
  %14 = phi ptr [ %11, %7 ], [ null, %12 ]
  ret ptr %14
}

; Function Attrs: mustprogress nounwind uwtable
define linkonce_odr dso_local noundef i32 @_ZNK6google8protobuf16RepeatedPtrFieldIN4i18n12phonenumbers13PhoneMetadataEE4sizeEv(ptr noundef nonnull align 8 dereferenceable(24) %0) #5 comdat align 2 {
  %2 = alloca ptr, align 8
  store ptr %0, ptr %2, align 8
  %3 = load ptr, ptr %2, align 8
  %4 = call noundef i32 @_ZNK6google8protobuf8internal20RepeatedPtrFieldBase4sizeEv(ptr noundef nonnull align 8 dereferenceable(24) %3)
  ret i32 %4
}

; Function Attrs: mustprogress uwtable
define dso_local void @_ZNK4i18n12phonenumbers23PhoneMetadataCollection13SetCachedSizeEi(ptr noundef nonnull align 8 dereferenceable(48) %0, i32 noundef %1) #4 align 2 {
  %3 = alloca ptr, align 8
  %4 = alloca i32, align 4
  store ptr %0, ptr %3, align 8
  store i32 %1, ptr %4, align 4
  %5 = load ptr, ptr %3, align 8
  %6 = getelementptr inbounds %"class.i18n::phonenumbers::PhoneMetadataCollection", ptr %5, i32 0, i32 2
  %7 = load i32, ptr %4, align 4
  call void @_ZN6google8protobuf8internal10CachedSize3SetEi(ptr noundef nonnull align 4 dereferenceable(4) %6, i32 noundef %7)
  ret void
}

; Function Attrs: mustprogress nounwind uwtable
define linkonce_odr dso_local noundef i32 @_ZN6google8protobuf8internal12ToCachedSizeEm(i64 noundef %0) #5 comdat {
  %2 = alloca i64, align 8
  store i64 %0, ptr %2, align 8
  %3 = load i64, ptr %2, align 8
  %4 = trunc i64 %3 to i32
  ret i32 %4
}

; Function Attrs: mustprogress nounwind uwtable
define linkonce_odr dso_local noundef ptr @_ZNK6google8protobuf8internal16InternalMetadata8PtrValueINS2_9ContainerINSt7__cxx1112basic_stringIcSt11char_traitsIcESaIcEEEEEEEPT_v(ptr noundef nonnull align 8 dereferenceable(8) %0) #5 comdat align 2 {
  %2 = alloca ptr, align 8
  store ptr %0, ptr %2, align 8
  %3 = load ptr, ptr %2, align 8
  %4 = getelementptr inbounds %"class.google::protobuf::internal::InternalMetadata", ptr %3, i32 0, i32 0
  %5 = load ptr, ptr %4, align 8
  %6 = ptrtoint ptr %5 to i64
  %7 = and i64 %6, -2
  %8 = inttoptr i64 %7 to ptr
  ret ptr %8
}

; Function Attrs: mustprogress nounwind uwtable
define linkonce_odr dso_local noundef nonnull align 8 dereferenceable(8) ptr @_ZN6google8protobuf8internal19RepeatedPtrIteratorIKN4i18n12phonenumbers13PhoneMetadataEEppEv(ptr noundef nonnull align 8 dereferenceable(8) %0) #5 comdat align 2 {
  %2 = alloca ptr, align 8
  store ptr %0, ptr %2, align 8
  %3 = load ptr, ptr %2, align 8
  %4 = getelementptr inbounds %"class.google::protobuf::internal::RepeatedPtrIterator.7", ptr %3, i32 0, i32 0
  %5 = load ptr, ptr %4, align 8
  %6 = getelementptr inbounds ptr, ptr %5, i32 1
  store ptr %6, ptr %4, align 8
  ret ptr %3
}

; Function Attrs: mustprogress uwtable
define linkonce_odr dso_local noundef i64 @_ZN6google8protobuf8internal14WireFormatLite11MessageSizeIN4i18n12phonenumbers13PhoneMetadataEEEmRKT_(ptr noundef nonnull align 8 dereferenceable(280) %0) #4 comdat align 2 {
  %2 = alloca ptr, align 8
  store ptr %0, ptr %2, align 8
  %3 = load ptr, ptr %2, align 8
  %4 = call noundef i64 @_ZNK4i18n12phonenumbers13PhoneMetadata12ByteSizeLongEv(ptr noundef nonnull align 8 dereferenceable(280) %3)
  %5 = call noundef i64 @_ZN6google8protobuf8internal14WireFormatLite19LengthDelimitedSizeEm(i64 noundef %4)
  ret i64 %5
}

; Function Attrs: mustprogress nounwind uwtable
define linkonce_odr dso_local noundef nonnull align 8 dereferenceable(280) ptr @_ZNK6google8protobuf8internal19RepeatedPtrIteratorIKN4i18n12phonenumbers13PhoneMetadataEEdeEv(ptr noundef nonnull align 8 dereferenceable(8) %0) #5 comdat align 2 {
  %2 = alloca ptr, align 8
  store ptr %0, ptr %2, align 8
  %3 = load ptr, ptr %2, align 8
  %4 = getelementptr inbounds %"class.google::protobuf::internal::RepeatedPtrIterator.7", ptr %3, i32 0, i32 0
  %5 = load ptr, ptr %4, align 8
  %6 = load ptr, ptr %5, align 8
  ret ptr %6
}

; Function Attrs: mustprogress nounwind uwtable
define linkonce_odr dso_local noundef zeroext i1 @_ZNK6google8protobuf8internal19RepeatedPtrIteratorIKN4i18n12phonenumbers13PhoneMetadataEEneERKS7_(ptr noundef nonnull align 8 dereferenceable(8) %0, ptr noundef nonnull align 8 dereferenceable(8) %1) #5 comdat align 2 {
  %3 = alloca ptr, align 8
  %4 = alloca ptr, align 8
  store ptr %0, ptr %3, align 8
  store ptr %1, ptr %4, align 8
  %5 = load ptr, ptr %3, align 8
  %6 = getelementptr inbounds %"class.google::protobuf::internal::RepeatedPtrIterator.7", ptr %5, i32 0, i32 0
  %7 = load ptr, ptr %6, align 8
  %8 = load ptr, ptr %4, align 8
  %9 = getelementptr inbounds %"class.google::protobuf::internal::RepeatedPtrIterator.7", ptr %8, i32 0, i32 0
  %10 = load ptr, ptr %9, align 8
  %11 = icmp ne ptr %7, %10
  ret i1 %11
}

; Function Attrs: mustprogress uwtable
define linkonce_odr dso_local ptr @_ZNK6google8protobuf16RepeatedPtrFieldIN4i18n12phonenumbers13PhoneMetadataEE3endEv(ptr noundef nonnull align 8 dereferenceable(24) %0) #4 comdat align 2 {
  %2 = alloca %"class.google::protobuf::internal::RepeatedPtrIterator.7", align 8
  %3 = alloca ptr, align 8
  %4 = alloca %"class.google::protobuf::internal::RepeatedPtrIterator.23", align 8
  store ptr %0, ptr %3, align 8
  %5 = load ptr, ptr %3, align 8
  %6 = call noundef ptr @_ZNK6google8protobuf8internal20RepeatedPtrFieldBase8raw_dataEv(ptr noundef nonnull align 8 dereferenceable(24) %5)
  %7 = call noundef i32 @_ZNK6google8protobuf16RepeatedPtrFieldIN4i18n12phonenumbers13PhoneMetadataEE4sizeEv(ptr noundef nonnull align 8 dereferenceable(24) %5)
  %8 = sext i32 %7 to i64
  %9 = getelementptr inbounds ptr, ptr %6, i64 %8
  call void @_ZN6google8protobuf8internal19RepeatedPtrIteratorIN4i18n12phonenumbers13PhoneMetadataEEC2EPKPv(ptr noundef nonnull align 8 dereferenceable(8) %4, ptr noundef %9)
  call void @_ZN6google8protobuf8internal19RepeatedPtrIteratorIKN4i18n12phonenumbers13PhoneMetadataEEC2IS5_EERKNS2_IT_EE(ptr noundef nonnull align 8 dereferenceable(8) %2, ptr noundef nonnull align 8 dereferenceable(8) %4)
  %10 = getelementptr inbounds %"class.google::protobuf::internal::RepeatedPtrIterator.7", ptr %2, i32 0, i32 0
  %11 = load ptr, ptr %10, align 8
  ret ptr %11
}

; Function Attrs: mustprogress uwtable
define linkonce_odr dso_local ptr @_ZNK6google8protobuf16RepeatedPtrFieldIN4i18n12phonenumbers13PhoneMetadataEE5beginEv(ptr noundef nonnull align 8 dereferenceable(24) %0) #4 comdat align 2 {
  %2 = alloca %"class.google::protobuf::internal::RepeatedPtrIterator.7", align 8
  %3 = alloca ptr, align 8
  %4 = alloca %"class.google::protobuf::internal::RepeatedPtrIterator.23", align 8
  store ptr %0, ptr %3, align 8
  %5 = load ptr, ptr %3, align 8
  %6 = call noundef ptr @_ZNK6google8protobuf8internal20RepeatedPtrFieldBase8raw_dataEv(ptr noundef nonnull align 8 dereferenceable(24) %5)
  call void @_ZN6google8protobuf8internal19RepeatedPtrIteratorIN4i18n12phonenumbers13PhoneMetadataEEC2EPKPv(ptr noundef nonnull align 8 dereferenceable(8) %4, ptr noundef %6)
  call void @_ZN6google8protobuf8internal19RepeatedPtrIteratorIKN4i18n12phonenumbers13PhoneMetadataEEC2IS5_EERKNS2_IT_EE(ptr noundef nonnull align 8 dereferenceable(8) %2, ptr noundef nonnull align 8 dereferenceable(8) %4)
  %7 = getelementptr inbounds %"class.google::protobuf::internal::RepeatedPtrIterator.7", ptr %2, i32 0, i32 0
  %8 = load ptr, ptr %7, align 8
  ret ptr %8
}

; Function Attrs: mustprogress uwtable
define linkonce_odr dso_local noundef i32 @_ZNK4i18n12phonenumbers23PhoneMetadataCollection23_internal_metadata_sizeEv(ptr noundef nonnull align 8 dereferenceable(48) %0) #4 comdat align 2 {
  %2 = alloca ptr, align 8
  store ptr %0, ptr %2, align 8
  %3 = load ptr, ptr %2, align 8
  %4 = getelementptr inbounds %"class.i18n::phonenumbers::PhoneMetadataCollection", ptr %3, i32 0, i32 1
  %5 = call noundef i32 @_ZNK6google8protobuf16RepeatedPtrFieldIN4i18n12phonenumbers13PhoneMetadataEE4sizeEv(ptr noundef nonnull align 8 dereferenceable(24) %4)
  ret i32 %5
}

; Function Attrs: mustprogress uwtable
define dso_local noundef i64 @_ZNK4i18n12phonenumbers23PhoneMetadataCollection12ByteSizeLongEv(ptr noundef nonnull align 8 dereferenceable(48) %0) unnamed_addr #4 align 2 {
  %2 = alloca ptr, align 8
  %3 = alloca ptr, align 8
  %4 = alloca ptr, align 8
  %5 = alloca ptr, align 8
  %6 = alloca ptr, align 8
  %7 = alloca ptr, align 8
  %8 = alloca ptr, align 8
  %9 = alloca ptr, align 8
  %10 = alloca i64, align 8
  %11 = alloca i32, align 4
  %12 = alloca ptr, align 8
  %13 = alloca %"class.google::protobuf::internal::RepeatedPtrIterator.7", align 8
  %14 = alloca %"class.google::protobuf::internal::RepeatedPtrIterator.7", align 8
  %15 = alloca ptr, align 8
  %16 = alloca i32, align 4
  store ptr %0, ptr %9, align 8
  %17 = load ptr, ptr %9, align 8
  store i64 0, ptr %10, align 8
  store i32 0, ptr %11, align 4
  %18 = call noundef i32 @_ZNK4i18n12phonenumbers23PhoneMetadataCollection23_internal_metadata_sizeEv(ptr noundef nonnull align 8 dereferenceable(48) %17)
  %19 = sext i32 %18 to i64
  %20 = mul i64 1, %19
  %21 = load i64, ptr %10, align 8
  %22 = add i64 %21, %20
  store i64 %22, ptr %10, align 8
  %23 = getelementptr inbounds %"class.i18n::phonenumbers::PhoneMetadataCollection", ptr %17, i32 0, i32 1
  store ptr %23, ptr %12, align 8
  %24 = load ptr, ptr %12, align 8
  %25 = call ptr @_ZNK6google8protobuf16RepeatedPtrFieldIN4i18n12phonenumbers13PhoneMetadataEE5beginEv(ptr noundef nonnull align 8 dereferenceable(24) %24)
  %26 = getelementptr inbounds %"class.google::protobuf::internal::RepeatedPtrIterator.7", ptr %13, i32 0, i32 0
  store ptr %25, ptr %26, align 8
  %27 = load ptr, ptr %12, align 8
  %28 = call ptr @_ZNK6google8protobuf16RepeatedPtrFieldIN4i18n12phonenumbers13PhoneMetadataEE3endEv(ptr noundef nonnull align 8 dereferenceable(24) %27)
  %29 = getelementptr inbounds %"class.google::protobuf::internal::RepeatedPtrIterator.7", ptr %14, i32 0, i32 0
  store ptr %28, ptr %29, align 8
  br label %30

30:                                               ; preds = %38, %1
  %31 = call noundef zeroext i1 @_ZNK6google8protobuf8internal19RepeatedPtrIteratorIKN4i18n12phonenumbers13PhoneMetadataEEneERKS7_(ptr noundef nonnull align 8 dereferenceable(8) %13, ptr noundef nonnull align 8 dereferenceable(8) %14)
  br i1 %31, label %32, label %40

32:                                               ; preds = %30
  %33 = call noundef nonnull align 8 dereferenceable(280) ptr @_ZNK6google8protobuf8internal19RepeatedPtrIteratorIKN4i18n12phonenumbers13PhoneMetadataEEdeEv(ptr noundef nonnull align 8 dereferenceable(8) %13)
  store ptr %33, ptr %15, align 8
  %34 = load ptr, ptr %15, align 8
  %35 = call noundef i64 @_ZN6google8protobuf8internal14WireFormatLite11MessageSizeIN4i18n12phonenumbers13PhoneMetadataEEEmRKT_(ptr noundef nonnull align 8 dereferenceable(280) %34)
  %36 = load i64, ptr %10, align 8
  %37 = add i64 %36, %35
  store i64 %37, ptr %10, align 8
  br label %38

38:                                               ; preds = %32
  %39 = call noundef nonnull align 8 dereferenceable(8) ptr @_ZN6google8protobuf8internal19RepeatedPtrIteratorIKN4i18n12phonenumbers13PhoneMetadataEEppEv(ptr noundef nonnull align 8 dereferenceable(8) %13)
  br label %30

40:                                               ; preds = %30
  %41 = getelementptr inbounds %"class.google::protobuf::MessageLite", ptr %17, i32 0, i32 1
  store ptr %41, ptr %8, align 8
  %42 = load ptr, ptr %8, align 8
  store ptr %42, ptr %2, align 8
  %43 = load ptr, ptr %2, align 8
  %44 = load ptr, ptr %43, align 8
  %45 = ptrtoint ptr %44 to i64
  %46 = and i64 %45, 1
  %47 = trunc i64 %46 to i32
  %48 = icmp eq i32 %47, 1
  br i1 %48, label %49, label %70

49:                                               ; preds = %40
  %50 = getelementptr inbounds %"class.google::protobuf::MessageLite", ptr %17, i32 0, i32 1
  store ptr %50, ptr %6, align 8
  store ptr @_ZN6google8protobuf8internal14GetEmptyStringB5cxx11Ev, ptr %7, align 8
  %51 = load ptr, ptr %6, align 8
  store ptr %51, ptr %4, align 8
  %52 = load ptr, ptr %4, align 8
  store ptr %52, ptr %3, align 8
  %53 = load ptr, ptr %3, align 8
  %54 = load ptr, ptr %53, align 8
  %55 = ptrtoint ptr %54 to i64
  %56 = and i64 %55, 1
  %57 = trunc i64 %56 to i32
  %58 = icmp eq i32 %57, 1
  br i1 %58, label %59, label %62

59:                                               ; preds = %49
  %60 = call noundef ptr @_ZNK6google8protobuf8internal16InternalMetadata8PtrValueINS2_9ContainerINSt7__cxx1112basic_stringIcSt11char_traitsIcESaIcEEEEEEEPT_v(ptr noundef nonnull align 8 dereferenceable(8) %51)
  %61 = getelementptr inbounds %"struct.google::protobuf::internal::InternalMetadata::Container", ptr %60, i32 0, i32 1
  store ptr %61, ptr %5, align 8
  br label %65

62:                                               ; preds = %49
  %63 = load ptr, ptr %7, align 8
  %64 = call noundef nonnull align 8 dereferenceable(32) ptr %63()
  store ptr %64, ptr %5, align 8
  br label %65

65:                                               ; preds = %62, %59
  %66 = load ptr, ptr %5, align 8
  %67 = call noundef i64 @_ZNKSt7__cxx1112basic_stringIcSt11char_traitsIcESaIcEE4sizeEv(ptr noundef nonnull align 8 dereferenceable(32) %66) #3
  %68 = load i64, ptr %10, align 8
  %69 = add i64 %68, %67
  store i64 %69, ptr %10, align 8
  br label %70

70:                                               ; preds = %65, %40
  %71 = load i64, ptr %10, align 8
  %72 = call noundef i32 @_ZN6google8protobuf8internal12ToCachedSizeEm(i64 noundef %71)
  store i32 %72, ptr %16, align 4
  %73 = load i32, ptr %16, align 4
  call void @_ZNK4i18n12phonenumbers23PhoneMetadataCollection13SetCachedSizeEi(ptr noundef nonnull align 8 dereferenceable(48) %17, i32 noundef %73)
  %74 = load i64, ptr %10, align 8
  ret i64 %74
}