; Function Attrs: mustprogress uwtable
define dso_local noundef i64 @_ZNK4i18n12phonenumbers23PhoneMetadataCollection12ByteSizeLongEv(ptr nocapture noundef nonnull align 8 dereferenceable(48) %0) unnamed_addr #3 align 2 personality ptr @__gxx_personality_v0 {
  %2 = getelementptr inbounds i8, ptr %0, i64 24
  %3 = load i32, ptr %2, align 8
  %4 = sext i32 %3 to i64
  %5 = getelementptr inbounds i8, ptr %0, i64 32
  %6 = load ptr, ptr %5, align 8
  %.not.i.i = icmp eq ptr %6, null
  %7 = getelementptr inbounds i8, ptr %6, i64 8
  %spec.select.i.i = select i1 %.not.i.i, ptr null, ptr %7
  %8 = getelementptr inbounds ptr, ptr %spec.select.i.i, i64 %4
  %.not2223 = icmp eq i32 %3, 0
  br i1 %.not2223, label %._crit_edge, label %.lr.ph

.lr.ph:                                           ; preds = %1, %.lr.ph
  %.01625 = phi i64 [ %20, %.lr.ph ], [ %4, %1 ]
  %.sroa.019.024 = phi ptr [ %21, %.lr.ph ], [ %spec.select.i.i, %1 ]
  %9 = load ptr, ptr %.sroa.019.024, align 8
  %10 = tail call noundef i64 @_ZNK4i18n12phonenumbers13PhoneMetadata12ByteSizeLongEv(ptr noundef nonnull align 8 dereferenceable(280) %9)
  %11 = trunc i64 %10 to i32
  %12 = or i32 %11, 1
  %13 = tail call i32 @llvm.ctlz.i32(i32 %12, i1 true), !range !9
  %14 = xor i32 %13, 31
  %15 = mul nuw nsw i32 %14, 9
  %16 = add nuw nsw i32 %15, 73
  %17 = lshr i32 %16, 6
  %18 = zext nneg i32 %17 to i64
  %19 = add i64 %10, %.01625
  %20 = add i64 %19, %18
  %21 = getelementptr inbounds i8, ptr %.sroa.019.024, i64 8
  %.not22 = icmp eq ptr %21, %8
  br i1 %.not22, label %._crit_edge, label %.lr.ph

._crit_edge:                                      ; preds = %.lr.ph, %1
  %.016.lcssa = phi i64 [ 0, %1 ], [ %20, %.lr.ph ]
  %22 = getelementptr inbounds i8, ptr %0, i64 8
  %23 = load ptr, ptr %22, align 8
  %24 = ptrtoint ptr %23 to i64
  %25 = and i64 %24, 1
  %.not = icmp eq i64 %25, 0
  br i1 %.not, label %32, label %26

26:                                               ; preds = %._crit_edge
  %27 = and i64 %24, -2
  %28 = inttoptr i64 %27 to ptr
  %29 = getelementptr inbounds i8, ptr %28, i64 8
  %30 = tail call noundef i64 @_ZNKSt7__cxx1112basic_stringIcSt11char_traitsIcESaIcEE4sizeEv(ptr noundef nonnull align 8 dereferenceable(32) %29) #21
  %31 = add i64 %30, %.016.lcssa
  br label %32

32:                                               ; preds = %26, %._crit_edge
  %.1 = phi i64 [ %31, %26 ], [ %.016.lcssa, %._crit_edge ]
  %33 = trunc i64 %.1 to i32
  %34 = getelementptr inbounds i8, ptr %0, i64 40
  store atomic i32 %33, ptr %34 monotonic, align 8
  ret i64 %.1
}